; ModuleID = '15/1871.c'
source_filename = "15/1871.c"
target datalayout = "e-m:e-p270:32:32-p271:32:32-p272:64:64-i64:64-f80:128-n8:16:32:64-S128"
target triple = "x86_64-pc-linux-gnu"

@.str = private unnamed_addr constant [3 x i8] c"%d\00", align 1
@zl = common dso_local global [1000 x [1000 x i32]] zeroinitializer, align 16
@.str.1 = private unnamed_addr constant [4 x i8] c"%d\0A\00", align 1

; Function Attrs: noinline nounwind uwtable
define dso_local i32 @main() #0 {
  %1 = alloca i32, align 4
  %2 = alloca i32, align 4
  %3 = alloca i32, align 4
  %4 = alloca i32, align 4
  %5 = alloca i32, align 4
  %6 = alloca i32, align 4
  %7 = alloca i32, align 4
  store i32 0, i32* %1, align 4
  %8 = call i32 (i8*, ...) @__isoc99_scanf(i8* getelementptr inbounds ([3 x i8], [3 x i8]* @.str, i64 0, i64 0), i32* %4)
  store i32 0, i32* %2, align 4
  br label %9

9:                                                ; preds = %30, %0
  %10 = load i32, i32* %2, align 4
  %11 = load i32, i32* %4, align 4
  %12 = icmp slt i32 %10, %11
  br i1 %12, label %13, label %33

13:                                               ; preds = %9
  store i32 0, i32* %3, align 4
  br label %14

14:                                               ; preds = %26, %13
  %15 = load i32, i32* %3, align 4
  %16 = load i32, i32* %4, align 4
  %17 = icmp slt i32 %15, %16
  br i1 %17, label %18, label %29

18:                                               ; preds = %14
  %19 = load i32, i32* %2, align 4
  %20 = sext i32 %19 to i64
  %21 = getelementptr inbounds [1000 x [1000 x i32]], [1000 x [1000 x i32]]* @zl, i64 0, i64 %20
  %22 = load i32, i32* %3, align 4
  %23 = sext i32 %22 to i64
  %24 = getelementptr inbounds [1000 x i32], [1000 x i32]* %21, i64 0, i64 %23
  %25 = call i32 (i8*, ...) @__isoc99_scanf(i8* getelementptr inbounds ([3 x i8], [3 x i8]* @.str, i64 0, i64 0), i32* %24)
  br label %26

26:                                               ; preds = %18
  %27 = load i32, i32* %3, align 4
  %28 = add nsw i32 %27, 1
  store i32 %28, i32* %3, align 4
  br label %14

29:                                               ; preds = %14
  br label %30

30:                                               ; preds = %29
  %31 = load i32, i32* %2, align 4
  %32 = add nsw i32 %31, 1
  store i32 %32, i32* %2, align 4
  br label %9

33:                                               ; preds = %9
  store i32 0, i32* %2, align 4
  br label %34

34:                                               ; preds = %70, %33
  %35 = load i32, i32* %2, align 4
  %36 = load i32, i32* %4, align 4
  %37 = sub nsw i32 %36, 1
  %38 = icmp slt i32 %35, %37
  br i1 %38, label %39, label %73

39:                                               ; preds = %34
  store i32 0, i32* %3, align 4
  br label %40

40:                                               ; preds = %56, %39
  %41 = load i32, i32* %3, align 4
  %42 = load i32, i32* %4, align 4
  %43 = sub nsw i32 %42, 1
  %44 = icmp slt i32 %41, %43
  br i1 %44, label %45, label %59

45:                                               ; preds = %40
  %46 = load i32, i32* %2, align 4
  %47 = sext i32 %46 to i64
  %48 = getelementptr inbounds [1000 x [1000 x i32]], [1000 x [1000 x i32]]* @zl, i64 0, i64 %47
  %49 = load i32, i32* %3, align 4
  %50 = sext i32 %49 to i64
  %51 = getelementptr inbounds [1000 x i32], [1000 x i32]* %48, i64 0, i64 %50
  %52 = load i32, i32* %51, align 4
  %53 = icmp eq i32 %52, 0
  br i1 %53, label %54, label %55

54:                                               ; preds = %45
  br label %59

55:                                               ; preds = %45
  br label %56

56:                                               ; preds = %55
  %57 = load i32, i32* %3, align 4
  %58 = add nsw i32 %57, 1
  store i32 %58, i32* %3, align 4
  br label %40

59:                                               ; preds = %54, %40
  %60 = load i32, i32* %2, align 4
  %61 = sext i32 %60 to i64
  %62 = getelementptr inbounds [1000 x [1000 x i32]], [1000 x [1000 x i32]]* @zl, i64 0, i64 %61
  %63 = load i32, i32* %3, align 4
  %64 = sext i32 %63 to i64
  %65 = getelementptr inbounds [1000 x i32], [1000 x i32]* %62, i64 0, i64 %64
  %66 = load i32, i32* %65, align 4
  %67 = icmp eq i32 %66, 0
  br i1 %67, label %68, label %69

68:                                               ; preds = %59
  br label %73

69:                                               ; preds = %59
  br label %70

70:                                               ; preds = %69
  %71 = load i32, i32* %2, align 4
  %72 = add nsw i32 %71, 1
  store i32 %72, i32* %2, align 4
  br label %34

73:                                               ; preds = %68, %34
  %74 = load i32, i32* %2, align 4
  store i32 %74, i32* %5, align 4
  %75 = load i32, i32* %3, align 4
  store i32 %75, i32* %6, align 4
  %76 = load i32, i32* %4, align 4
  %77 = sub nsw i32 %76, 1
  store i32 %77, i32* %2, align 4
  br label %78

78:                                               ; preds = %112, %73
  %79 = load i32, i32* %2, align 4
  %80 = icmp sgt i32 %79, 0
  br i1 %80, label %81, label %115

81:                                               ; preds = %78
  %82 = load i32, i32* %4, align 4
  %83 = sub nsw i32 %82, 1
  store i32 %83, i32* %3, align 4
  br label %84

84:                                               ; preds = %98, %81
  %85 = load i32, i32* %3, align 4
  %86 = icmp sgt i32 %85, 0
  br i1 %86, label %87, label %101

87:                                               ; preds = %84
  %88 = load i32, i32* %2, align 4
  %89 = sext i32 %88 to i64
  %90 = getelementptr inbounds [1000 x [1000 x i32]], [1000 x [1000 x i32]]* @zl, i64 0, i64 %89
  %91 = load i32, i32* %3, align 4
  %92 = sext i32 %91 to i64
  %93 = getelementptr inbounds [1000 x i32], [1000 x i32]* %90, i64 0, i64 %92
  %94 = load i32, i32* %93, align 4
  %95 = icmp eq i32 %94, 0
  br i1 %95, label %96, label %97

96:                                               ; preds = %87
  br label %101

97:                                               ; preds = %87
  br label %98

98:                                               ; preds = %97
  %99 = load i32, i32* %3, align 4
  %100 = add nsw i32 %99, -1
  store i32 %100, i32* %3, align 4
  br label %84

101:                                              ; preds = %96, %84
  %102 = load i32, i32* %2, align 4
  %103 = sext i32 %102 to i64
  %104 = getelementptr inbounds [1000 x [1000 x i32]], [1000 x [1000 x i32]]* @zl, i64 0, i64 %103
  %105 = load i32, i32* %3, align 4
  %106 = sext i32 %105 to i64
  %107 = getelementptr inbounds [1000 x i32], [1000 x i32]* %104, i64 0, i64 %106
  %108 = load i32, i32* %107, align 4
  %109 = icmp eq i32 %108, 0
  br i1 %109, label %110, label %111

110:                                              ; preds = %101
  br label %115

111:                                              ; preds = %101
  br label %112

112:                                              ; preds = %111
  %113 = load i32, i32* %2, align 4
  %114 = add nsw i32 %113, -1
  store i32 %114, i32* %2, align 4
  br label %78

115:                                              ; preds = %110, %78
  %116 = load i32, i32* %2, align 4
  %117 = load i32, i32* %5, align 4
  %118 = sub nsw i32 %116, %117
  %119 = sub nsw i32 %118, 1
  %120 = load i32, i32* %3, align 4
  %121 = load i32, i32* %6, align 4
  %122 = sub nsw i32 %120, %121
  %123 = sub nsw i32 %122, 1
  %124 = mul nsw i32 %119, %123
  store i32 %124, i32* %7, align 4
  %125 = load i32, i32* %7, align 4
  %126 = call i32 (i8*, ...) @printf(i8* getelementptr inbounds ([4 x i8], [4 x i8]* @.str.1, i64 0, i64 0), i32 %125)
  ret i32 0
}

declare dso_local i32 @__isoc99_scanf(i8*, ...) #1

declare dso_local i32 @printf(i8*, ...) #1


!llvm.module.flags = !{!0}
!llvm.ident = !{!1}

!0 = !{i32 1, !"wchar_size", i32 4}
!1 = !{!"clang version 10.0.0-4ubuntu1 "}
